	.file	"cacheutils.c"
	.text
	.globl	rdtsc_nofence
	.type	rdtsc_nofence, @function
rdtsc_nofence:
.LFB0:
	.cfi_startproc
	endbr64
	pushq	%rbp
	.cfi_def_cfa_offset 16
	.cfi_offset 6, -16
	movq	%rsp, %rbp
	.cfi_def_cfa_register 6
#APP
# 5 "utils/cacheutils.c" 1
	rdtsc
# 0 "" 2
#NO_APP
	movq	%rax, -16(%rbp)
	movq	%rdx, -8(%rbp)
	movq	-8(%rbp), %rax
	salq	$32, %rax
	orq	-16(%rbp), %rax
	popq	%rbp
	.cfi_def_cfa 7, 8
	ret
	.cfi_endproc
.LFE0:
	.size	rdtsc_nofence, .-rdtsc_nofence
	.globl	rdtsc
	.type	rdtsc, @function
rdtsc:
.LFB1:
	.cfi_startproc
	endbr64
	pushq	%rbp
	.cfi_def_cfa_offset 16
	.cfi_offset 6, -16
	movq	%rsp, %rbp
	.cfi_def_cfa_register 6
#APP
# 11 "utils/cacheutils.c" 1
	mfence
# 0 "" 2
# 12 "utils/cacheutils.c" 1
	rdtsc
# 0 "" 2
#NO_APP
	movq	%rax, -16(%rbp)
	movq	%rdx, -8(%rbp)
#APP
# 13 "utils/cacheutils.c" 1
	mfence
# 0 "" 2
#NO_APP
	movq	-8(%rbp), %rax
	salq	$32, %rax
	orq	-16(%rbp), %rax
	popq	%rbp
	.cfi_def_cfa 7, 8
	ret
	.cfi_endproc
.LFE1:
	.size	rdtsc, .-rdtsc
	.globl	rdtsc_begin
	.type	rdtsc_begin, @function
rdtsc_begin:
.LFB2:
	.cfi_startproc
	endbr64
	pushq	%rbp
	.cfi_def_cfa_offset 16
	.cfi_offset 6, -16
	movq	%rsp, %rbp
	.cfi_def_cfa_register 6
	pushq	%rbx
	.cfi_offset 3, -24
#APP
# 19 "utils/cacheutils.c" 1
	mfence
	CPUID
	RDTSCP
	mov %rdx, %rdi
	mov %rax, %rsi
	mfence
	
# 0 "" 2
#NO_APP
	movq	%rdi, -24(%rbp)
	movq	%rsi, -16(%rbp)
	movq	-24(%rbp), %rax
	salq	$32, %rax
	orq	-16(%rbp), %rax
	movq	-8(%rbp), %rbx
	leave
	.cfi_def_cfa 7, 8
	ret
	.cfi_endproc
.LFE2:
	.size	rdtsc_begin, .-rdtsc_begin
	.globl	rdtsc_end
	.type	rdtsc_end, @function
rdtsc_end:
.LFB3:
	.cfi_startproc
	endbr64
	pushq	%rbp
	.cfi_def_cfa_offset 16
	.cfi_offset 6, -16
	movq	%rsp, %rbp
	.cfi_def_cfa_register 6
	pushq	%rbx
	.cfi_offset 3, -24
#APP
# 35 "utils/cacheutils.c" 1
	mfence
	RDTSCP
	mov %rdx, %rdi
	mov %rax, %rsi
	CPUID
	mfence
	
# 0 "" 2
#NO_APP
	movq	%rdi, -24(%rbp)
	movq	%rsi, -16(%rbp)
	movq	-24(%rbp), %rax
	salq	$32, %rax
	orq	-16(%rbp), %rax
	movq	-8(%rbp), %rbx
	leave
	.cfi_def_cfa 7, 8
	ret
	.cfi_endproc
.LFE3:
	.size	rdtsc_end, .-rdtsc_end
	.globl	maccess
	.type	maccess, @function
maccess:
.LFB4:
	.cfi_startproc
	endbr64
	pushq	%rbp
	.cfi_def_cfa_offset 16
	.cfi_offset 6, -16
	movq	%rsp, %rbp
	.cfi_def_cfa_register 6
	movq	%rdi, -8(%rbp)
	movq	-8(%rbp), %rdx
	movq	%rdx, %rcx
#APP
# 50 "utils/cacheutils.c" 1
	movq (%rcx), %rax

# 0 "" 2
#NO_APP
	nop
	popq	%rbp
	.cfi_def_cfa 7, 8
	ret
	.cfi_endproc
.LFE4:
	.size	maccess, .-maccess
	.globl	flush
	.type	flush, @function
flush:
.LFB5:
	.cfi_startproc
	endbr64
	pushq	%rbp
	.cfi_def_cfa_offset 16
	.cfi_offset 6, -16
	movq	%rsp, %rbp
	.cfi_def_cfa_register 6
	movq	%rdi, -8(%rbp)
	movq	-8(%rbp), %rdx
	movq	%rdx, %rcx
#APP
# 54 "utils/cacheutils.c" 1
	clflush 0(%rcx)

# 0 "" 2
#NO_APP
	nop
	popq	%rbp
	.cfi_def_cfa 7, 8
	ret
	.cfi_endproc
.LFE5:
	.size	flush, .-flush
	.globl	prefetch
	.type	prefetch, @function
prefetch:
.LFB6:
	.cfi_startproc
	endbr64
	pushq	%rbp
	.cfi_def_cfa_offset 16
	.cfi_offset 6, -16
	movq	%rsp, %rbp
	.cfi_def_cfa_register 6
	movq	%rdi, -8(%rbp)
#APP
# 58 "utils/cacheutils.c" 1
	prefetcht1 -8(%rbp)
# 0 "" 2
#NO_APP
	nop
	popq	%rbp
	.cfi_def_cfa 7, 8
	ret
	.cfi_endproc
.LFE6:
	.size	prefetch, .-prefetch
	.globl	longnop
	.type	longnop, @function
longnop:
.LFB7:
	.cfi_startproc
	endbr64
	pushq	%rbp
	.cfi_def_cfa_offset 16
	.cfi_offset 6, -16
	movq	%rsp, %rbp
	.cfi_def_cfa_register 6
#APP
# 62 "utils/cacheutils.c" 1
	nop
nop
nop
nop
nop
nop
nop
nop
nop
nop
nop
nop
nop
nop
nop
nop
nop
nop
nop
nop
nop
nop
nop
nop
nop
nop
nop
nop
nop
nop
nop
nop
nop
nop
nop
nop
nop
nop
nop
nop
nop
nop
nop
nop
nop
nop
nop
nop
nop
nop
nop
nop
nop
nop
nop
nop
nop
nop
nop
nop
nop
nop
nop
nop

# 0 "" 2
#NO_APP
	nop
	popq	%rbp
	.cfi_def_cfa 7, 8
	ret
	.cfi_endproc
.LFE7:
	.size	longnop, .-longnop
	.ident	"GCC: (Ubuntu 13.3.0-6ubuntu2~24.04) 13.3.0"
	.section	.note.GNU-stack,"",@progbits
	.section	.note.gnu.property,"a"
	.align 8
	.long	1f - 0f
	.long	4f - 1f
	.long	5
0:
	.string	"GNU"
1:
	.align 8
	.long	0xc0000002
	.long	3f - 2f
2:
	.long	0x3
3:
	.align 8
4:
